; Function Attrs: norecurse nounwind uwtable
define internal void @_ZN8LightGBM23ParallelPartitionRunnerIiLb0EE3RunILb1EEEiiRKSt8functionIFiiiiPiS4_EES4_.omp_outlined.2(ptr noalias nocapture noundef readonly %0, ptr noalias nocapture readnone %1, ptr nocapture noundef nonnull readonly align 4 dereferenceable(4) %2, ptr nocapture noundef readonly %3, ptr nocapture noundef nonnull readonly align 8 dereferenceable(8) %4, ptr nocapture noundef nonnull readonly align 8 dereferenceable(8) %5) #13 personality ptr @__gxx_personality_v0 {
  %7 = alloca i32, align 4
  %8 = alloca i32, align 4
  %9 = alloca i32, align 4
  %10 = alloca i32, align 4
  %11 = load i32, ptr %2, align 4
  %12 = add nsw i32 %11, -1
  %13 = icmp sgt i32 %11, 0
  br i1 %13, label %14, label %74

14:                                               ; preds = %6
  store i32 0, ptr %7, align 4
  store i32 %12, ptr %8, align 4
  store i32 1, ptr %9, align 4
  store i32 0, ptr %10, align 4
  %15 = load i32, ptr %0, align 4
  call void @__kmpc_for_static_init_4(ptr nonnull @1, i32 %15, i32 33, ptr nonnull %10, ptr nonnull %7, ptr nonnull %8, ptr nonnull %9, i32 1, i32 1)
  %16 = load i32, ptr %8, align 4
  %17 = call i32 @llvm.smin.i32(i32 %16, i32 %12)
  store i32 %17, ptr %8, align 4
  %18 = load i32, ptr %7, align 4
  %.not29 = icmp sgt i32 %18, %17
  br i1 %.not29, label %._crit_edge30, label %.preheader.lr.ph

.preheader.lr.ph:                                 ; preds = %14
  %19 = getelementptr inbounds i8, ptr %3, i64 8
  %20 = getelementptr inbounds i8, ptr %3, i64 56
  %21 = getelementptr inbounds i8, ptr %3, i64 80
  %22 = getelementptr inbounds i8, ptr %3, i64 128
  %23 = getelementptr inbounds i8, ptr %3, i64 104
  %24 = getelementptr inbounds i8, ptr %3, i64 152
  br label %.preheader

.preheader:                                       ; preds = %.preheader.lr.ph, %._crit_edge
  %25 = phi i32 [ %17, %.preheader.lr.ph ], [ %73, %._crit_edge ]
  %26 = phi i32 [ %18, %.preheader.lr.ph ], [ %71, %._crit_edge ]
  %.not2227 = icmp sgt i32 %26, %25
  br i1 %.not2227, label %._crit_edge, label %.lr.ph.preheader

.lr.ph.preheader:                                 ; preds = %.preheader
  %27 = sext i32 %26 to i64
  br label %.lr.ph

.lr.ph:                                           ; preds = %.lr.ph.preheader, %_ZSt6copy_nIPiiS0_ET1_T_T0_S1_.exit26
  %indvars.iv = phi i64 [ %27, %.lr.ph.preheader ], [ %indvars.iv.next, %_ZSt6copy_nIPiiS0_ET1_T_T0_S1_.exit26 ]
  %28 = load ptr, ptr %21, align 8
  %29 = getelementptr inbounds i32, ptr %28, i64 %indvars.iv
  %30 = load i32, ptr %29, align 4
  %31 = icmp slt i32 %30, 1
  br i1 %31, label %_ZSt6copy_nIPiiS0_ET1_T_T0_S1_.exit, label %_ZSt8__copy_nIPiiS0_ET1_T_T0_S1_St26random_access_iterator_tag.exit.i

_ZSt8__copy_nIPiiS0_ET1_T_T0_S1_St26random_access_iterator_tag.exit.i: ; preds = %.lr.ph
  %32 = load ptr, ptr %4, align 8
  %33 = load ptr, ptr %22, align 8
  %34 = getelementptr inbounds i32, ptr %33, i64 %indvars.iv
  %35 = load i32, ptr %34, align 4
  %36 = sext i32 %35 to i64
  %37 = getelementptr inbounds i32, ptr %32, i64 %36
  %38 = load ptr, ptr %19, align 8
  %39 = load ptr, ptr %20, align 8
  %40 = getelementptr inbounds i32, ptr %39, i64 %indvars.iv
  %41 = load i32, ptr %40, align 4
  %42 = sext i32 %41 to i64
  %43 = getelementptr inbounds i32, ptr %38, i64 %42
  %44 = zext nneg i32 %30 to i64
  %.idx.i.i = shl nuw nsw i64 %44, 2
  call void @llvm.memmove.p0.p0.i64(ptr align 4 %37, ptr align 4 %43, i64 %.idx.i.i, i1 false)
  br label %_ZSt6copy_nIPiiS0_ET1_T_T0_S1_.exit

_ZSt6copy_nIPiiS0_ET1_T_T0_S1_.exit:              ; preds = %_ZSt8__copy_nIPiiS0_ET1_T_T0_S1_St26random_access_iterator_tag.exit.i, %.lr.ph
  %45 = load ptr, ptr %23, align 8
  %46 = getelementptr inbounds i32, ptr %45, i64 %indvars.iv
  %47 = load i32, ptr %46, align 4
  %48 = icmp slt i32 %47, 1
  br i1 %48, label %_ZSt6copy_nIPiiS0_ET1_T_T0_S1_.exit26, label %_ZSt8__copy_nIPiiS0_ET1_T_T0_S1_St26random_access_iterator_tag.exit.i23

_ZSt8__copy_nIPiiS0_ET1_T_T0_S1_St26random_access_iterator_tag.exit.i23: ; preds = %_ZSt6copy_nIPiiS0_ET1_T_T0_S1_.exit
  %49 = load ptr, ptr %5, align 8
  %50 = load ptr, ptr %24, align 8
  %51 = getelementptr inbounds i32, ptr %50, i64 %indvars.iv
  %52 = load i32, ptr %51, align 4
  %53 = sext i32 %52 to i64
  %54 = getelementptr inbounds i32, ptr %49, i64 %53
  %55 = load ptr, ptr %19, align 8
  %56 = load ptr, ptr %20, align 8
  %57 = getelementptr inbounds i32, ptr %56, i64 %indvars.iv
  %58 = load i32, ptr %57, align 4
  %59 = sext i32 %58 to i64
  %60 = getelementptr inbounds i32, ptr %55, i64 %59
  %61 = load ptr, ptr %21, align 8
  %62 = getelementptr inbounds i32, ptr %61, i64 %indvars.iv
  %63 = load i32, ptr %62, align 4
  %64 = sext i32 %63 to i64
  %65 = getelementptr inbounds i32, ptr %60, i64 %64
  %66 = zext nneg i32 %47 to i64
  %.idx.i.i24 = shl nuw nsw i64 %66, 2
  call void @llvm.memmove.p0.p0.i64(ptr align 4 %54, ptr align 4 %65, i64 %.idx.i.i24, i1 false)
  br label %_ZSt6copy_nIPiiS0_ET1_T_T0_S1_.exit26

_ZSt6copy_nIPiiS0_ET1_T_T0_S1_.exit26:            ; preds = %_ZSt8__copy_nIPiiS0_ET1_T_T0_S1_St26random_access_iterator_tag.exit.i23, %_ZSt6copy_nIPiiS0_ET1_T_T0_S1_.exit
  %indvars.iv.next = add nsw i64 %indvars.iv, 1
  %67 = load i32, ptr %8, align 4
  %68 = sext i32 %67 to i64
  %.not22.not = icmp slt i64 %indvars.iv, %68
  br i1 %.not22.not, label %.lr.ph, label %._crit_edge.loopexit

._crit_edge.loopexit:                             ; preds = %_ZSt6copy_nIPiiS0_ET1_T_T0_S1_.exit26
  %.pre = load i32, ptr %7, align 4
  br label %._crit_edge

._crit_edge:                                      ; preds = %._crit_edge.loopexit, %.preheader
  %69 = phi i32 [ %26, %.preheader ], [ %.pre, %._crit_edge.loopexit ]
  %.lcssa = phi i32 [ %25, %.preheader ], [ %67, %._crit_edge.loopexit ]
  %70 = load i32, ptr %9, align 4
  %71 = add nsw i32 %70, %69
  store i32 %71, ptr %7, align 4
  %72 = add nsw i32 %70, %.lcssa
  %73 = call i32 @llvm.smin.i32(i32 %72, i32 %12)
  store i32 %73, ptr %8, align 4
  %.not = icmp sgt i32 %71, %73
  br i1 %.not, label %._crit_edge30, label %.preheader

._crit_edge30:                                    ; preds = %._crit_edge, %14
  call void @__kmpc_for_static_fini(ptr nonnull @1, i32 %15)
  br label %74

74:                                               ; preds = %._crit_edge30, %6
  ret void
}